; Function Attrs: nounwind uwtable
define internal noundef i32 @onFieldExpire(ptr noundef %0, ptr noundef readonly captures(none) %1) #1 {
  %3 = load ptr, ptr %1, align 8, !tbaa !189
  %4 = getelementptr inbounds nuw i8, ptr %3, i64 8
  %5 = load ptr, ptr %4, align 8, !tbaa !10
  %6 = getelementptr inbounds nuw i8, ptr %1, i64 8
  %7 = load ptr, ptr %6, align 8, !tbaa !191
  %8 = getelementptr inbounds nuw i8, ptr %5, i64 80
  %9 = load ptr, ptr %8, align 8, !tbaa !105
  %10 = tail call i64 @mstrlen(ptr noundef %0) #16
  tail call fastcc void @propagateHashFieldDeletion(ptr noundef %7, ptr noundef %9, ptr noundef %0, i64 noundef %10)
  %11 = load ptr, ptr %1, align 8, !tbaa !189
  %12 = load i32, ptr %11, align 8
  %13 = lshr i32 %12, 4
  %14 = and i32 %13, 15
  switch i32 %14, label %35 [
    i32 11, label %15
    i32 12, label %20
    i32 2, label %27
  ]

15:                                               ; preds = %2
  %16 = getelementptr inbounds nuw i8, ptr %11, i64 8
  %17 = load ptr, ptr %16, align 8, !tbaa !10
  %18 = tail call i64 @lpLength(ptr noundef %17) #16
  %19 = lshr i64 %18, 1
  br label %hashTypeLength.exit

20:                                               ; preds = %2
  %21 = getelementptr inbounds nuw i8, ptr %11, i64 8
  %22 = load ptr, ptr %21, align 8, !tbaa !10
  %23 = getelementptr inbounds nuw i8, ptr %22, i64 24
  %24 = load ptr, ptr %23, align 8, !tbaa !15
  %25 = tail call i64 @lpLength(ptr noundef %24) #16
  %26 = udiv i64 %25, 3
  br label %hashTypeLength.exit

27:                                               ; preds = %2
  %28 = getelementptr inbounds nuw i8, ptr %11, i64 8
  %29 = load ptr, ptr %28, align 8, !tbaa !10
  %30 = getelementptr inbounds nuw i8, ptr %29, i64 24
  %31 = load i64, ptr %30, align 8, !tbaa !28
  %32 = getelementptr inbounds nuw i8, ptr %29, i64 32
  %33 = load i64, ptr %32, align 8, !tbaa !28
  %34 = add i64 %33, %31
  br label %hashTypeLength.exit

35:                                               ; preds = %2
  tail call void (ptr, i32, ptr, ...) @_serverPanic(ptr noundef nonnull @.str.2, i32 noundef 1325, ptr noundef nonnull @.str.11) #16
  tail call void @abort() #17
  unreachable

hashTypeLength.exit:                              ; preds = %15, %20, %27
  %.0.i = phi i64 [ %19, %15 ], [ %34, %27 ], [ %26, %20 ]
  %36 = load ptr, ptr %6, align 8, !tbaa !191
  %37 = load ptr, ptr %8, align 8, !tbaa !105
  %38 = tail call i32 @getKeySlot(ptr noundef %37) #16
  %39 = add i64 %.0.i, -1
  tail call void @updateKeysizesHist(ptr noundef %36, i32 noundef %38, i32 noundef 4, i64 noundef %.0.i, i64 noundef %39) #16
  %40 = load ptr, ptr %1, align 8, !tbaa !189
  %41 = tail call i32 @hashTypeDelete(ptr noundef %40, ptr noundef %0, i32 noundef 0)
  %.not = icmp eq i32 %41, 0
  br i1 %.not, label %42, label %43, !prof !23

42:                                               ; preds = %hashTypeLength.exit
  tail call void @_serverAssert(ptr noundef nonnull @.str.65, ptr noundef nonnull @.str.2, i32 noundef 3523) #16
  tail call void @abort() #17
  unreachable

43:                                               ; preds = %hashTypeLength.exit
  %44 = load i64, ptr getelementptr inbounds nuw (i8, ptr @server, i64 2496), align 8, !tbaa !29
  %45 = add nsw i64 %44, 1
  store i64 %45, ptr getelementptr inbounds nuw (i8, ptr @server, i64 2496), align 8, !tbaa !29
  ret i32 0
}